ARM GAS  C:\Users\Admin\AppData\Local\Temp\ccaGXjpz.s 			page 1


   1              		.cpu cortex-m0
   2              		.fpu softvfp
   3              		.eabi_attribute 20, 1
   4              		.eabi_attribute 21, 1
   5              		.eabi_attribute 23, 3
   6              		.eabi_attribute 24, 1
   7              		.eabi_attribute 25, 1
   8              		.eabi_attribute 26, 1
   9              		.eabi_attribute 30, 6
  10              		.eabi_attribute 34, 0
  11              		.eabi_attribute 18, 4
  12              		.code	16
  13              		.file	"HeartRateProcessing.c"
  14              		.text
  15              	.Ltext0:
  16              		.cfi_sections	.debug_frame
  17              		.global	heartRate
  18              		.bss
  19              		.type	heartRate, %object
  20              		.size	heartRate, 1
  21              	heartRate:
  22 0000 00       		.space	1
  23              		.global	__aeabi_uidiv
  24              		.section	.text.ProcessHeartRateSignal,"ax",%progbits
  25              		.align	2
  26              		.global	ProcessHeartRateSignal
  27              		.code	16
  28              		.thumb_func
  29              		.type	ProcessHeartRateSignal, %function
  30              	ProcessHeartRateSignal:
  31              	.LFB35:
  32              		.file 1 ".\\HeartRateProcessing.c"
   1:.\HeartRateProcessing.c **** /*****************************************************************************
   2:.\HeartRateProcessing.c **** * File Name: HeartRateProcessing.c
   3:.\HeartRateProcessing.c **** *
   4:.\HeartRateProcessing.c **** * Version: 1.0
   5:.\HeartRateProcessing.c **** *
   6:.\HeartRateProcessing.c **** * Description:
   7:.\HeartRateProcessing.c **** * This file implements the heart rate measurement capability in the the PSoC 4 
   8:.\HeartRateProcessing.c **** * BLE Lab 3.
   9:.\HeartRateProcessing.c **** *
  10:.\HeartRateProcessing.c **** * Hardware Dependency:
  11:.\HeartRateProcessing.c **** * CY8CKIT-042 BLE Pioneer Kit
  12:.\HeartRateProcessing.c **** *
  13:.\HeartRateProcessing.c **** ******************************************************************************
  14:.\HeartRateProcessing.c **** * Copyright (2014), Cypress Semiconductor Corporation.
  15:.\HeartRateProcessing.c **** ******************************************************************************
  16:.\HeartRateProcessing.c **** * This software is owned by Cypress Semiconductor Corporation (Cypress) and is
  17:.\HeartRateProcessing.c **** * protected by and subject to worldwide patent protection (United States and
  18:.\HeartRateProcessing.c **** * foreign), United States copyright laws and international treaty provisions.
  19:.\HeartRateProcessing.c **** * Cypress hereby grants to licensee a personal, non-exclusive, non-transferable
  20:.\HeartRateProcessing.c **** * license to copy, use, modify, create derivative works of, and compile the
  21:.\HeartRateProcessing.c **** * Cypress Source Code and derivative works for the sole purpose of creating
  22:.\HeartRateProcessing.c **** * custom software in support of licensee product to be used only in conjunction
  23:.\HeartRateProcessing.c **** * with a Cypress integrated circuit as specified in the applicable agreement.
  24:.\HeartRateProcessing.c **** * Any reproduction, modification, translation, compilation, or representation of
  25:.\HeartRateProcessing.c **** * this software except as specified above is prohibited without the express
ARM GAS  C:\Users\Admin\AppData\Local\Temp\ccaGXjpz.s 			page 2


  26:.\HeartRateProcessing.c **** * written permission of Cypress.
  27:.\HeartRateProcessing.c **** *
  28:.\HeartRateProcessing.c **** * Disclaimer: CYPRESS MAKES NO WARRANTY OF ANY KIND, EXPRESS OR IMPLIED, WITH
  29:.\HeartRateProcessing.c **** * REGARD TO THIS MATERIAL, INCLUDING, BUT NOT LIMITED TO, THE IMPLIED
  30:.\HeartRateProcessing.c **** * WARRANTIES OF MERCHANTABILITY AND FITNESS FOR A PARTICULAR PURPOSE.
  31:.\HeartRateProcessing.c **** * Cypress reserves the right to make changes without further notice to the
  32:.\HeartRateProcessing.c **** * materials described herein. Cypress does not assume any liability arising out
  33:.\HeartRateProcessing.c **** * of the application or use of any product or circuit described herein. Cypress
  34:.\HeartRateProcessing.c **** * does not authorize its products for use as critical components in life-support
  35:.\HeartRateProcessing.c **** * systems where a malfunction or failure may reasonably be expected to result in
  36:.\HeartRateProcessing.c **** * significant injury to the user. The inclusion of Cypress' product in a life-
  37:.\HeartRateProcessing.c **** * support systems application implies that the manufacturer assumes all risk of
  38:.\HeartRateProcessing.c **** * such use and in doing so indemnifies Cypress against all charges. Use may be
  39:.\HeartRateProcessing.c **** * limited by and subject to the applicable Cypress software license agreement.
  40:.\HeartRateProcessing.c **** *****************************************************************************/
  41:.\HeartRateProcessing.c **** 
  42:.\HeartRateProcessing.c **** 
  43:.\HeartRateProcessing.c **** /*****************************************************************************
  44:.\HeartRateProcessing.c **** * Included headers
  45:.\HeartRateProcessing.c **** *****************************************************************************/
  46:.\HeartRateProcessing.c **** #include <project.h>
  47:.\HeartRateProcessing.c **** #include <stdbool.h>
  48:.\HeartRateProcessing.c **** #include "WatchdogTimer.h"
  49:.\HeartRateProcessing.c **** 
  50:.\HeartRateProcessing.c **** 
  51:.\HeartRateProcessing.c **** /*****************************************************************************
  52:.\HeartRateProcessing.c **** * Macros 
  53:.\HeartRateProcessing.c **** *****************************************************************************/
  54:.\HeartRateProcessing.c **** #define HEART_RATE_CHANNEL			        (0)
  55:.\HeartRateProcessing.c **** #define ADC_THRESHOLD 			            (0x06A0)
  56:.\HeartRateProcessing.c **** #define SEC_IN_MIN							(60)
  57:.\HeartRateProcessing.c **** #define MS_TO_SECOND                        (1000)
  58:.\HeartRateProcessing.c **** 
  59:.\HeartRateProcessing.c **** 
  60:.\HeartRateProcessing.c **** /*****************************************************************************
  61:.\HeartRateProcessing.c **** * Public variables 
  62:.\HeartRateProcessing.c **** *****************************************************************************/
  63:.\HeartRateProcessing.c **** uint8 heartRate = 0;
  64:.\HeartRateProcessing.c **** 
  65:.\HeartRateProcessing.c **** 
  66:.\HeartRateProcessing.c **** /*****************************************************************************
  67:.\HeartRateProcessing.c **** * Public function definitions
  68:.\HeartRateProcessing.c **** *****************************************************************************/
  69:.\HeartRateProcessing.c **** 
  70:.\HeartRateProcessing.c **** /*****************************************************************************
  71:.\HeartRateProcessing.c **** * Function Name: ProcessHeartRateSignal
  72:.\HeartRateProcessing.c **** ******************************************************************************
  73:.\HeartRateProcessing.c **** * Summary:
  74:.\HeartRateProcessing.c **** * Measures the heart rate of the user.
  75:.\HeartRateProcessing.c **** *
  76:.\HeartRateProcessing.c **** * Parameters:
  77:.\HeartRateProcessing.c **** * None
  78:.\HeartRateProcessing.c **** *
  79:.\HeartRateProcessing.c **** * Return:
  80:.\HeartRateProcessing.c **** * None
  81:.\HeartRateProcessing.c **** *
  82:.\HeartRateProcessing.c **** * Theory:
ARM GAS  C:\Users\Admin\AppData\Local\Temp\ccaGXjpz.s 			page 3


  83:.\HeartRateProcessing.c **** * This function acts as a simple model for heart rate measurement.
  84:.\HeartRateProcessing.c **** * The function takes the ADC sampled output and compares it to a threshold.
  85:.\HeartRateProcessing.c **** * If the ADC output is more than the threshold then it is considered as a 
  86:.\HeartRateProcessing.c **** * valid beat (R peak). The rising edge of this R peak is identified and the 
  87:.\HeartRateProcessing.c **** * corresponding system timestamp is noted. The RR-interval between two 
  88:.\HeartRateProcessing.c **** * peaks is then calculated and converted to a heart rate value in beats per
  89:.\HeartRateProcessing.c **** * minute. The RR-interval period is calculated over a rolling window.
  90:.\HeartRateProcessing.c **** *
  91:.\HeartRateProcessing.c **** * Side Effects:
  92:.\HeartRateProcessing.c **** * None
  93:.\HeartRateProcessing.c **** *
  94:.\HeartRateProcessing.c **** *****************************************************************************/
  95:.\HeartRateProcessing.c **** void ProcessHeartRateSignal(void)
  96:.\HeartRateProcessing.c **** {
  33              		.loc 1 96 0
  34              		.cfi_startproc
  35 0000 90B5     		push	{r4, r7, lr}
  36              		.cfi_def_cfa_offset 12
  37              		.cfi_offset 4, -12
  38              		.cfi_offset 7, -8
  39              		.cfi_offset 14, -4
  40 0002 83B0     		sub	sp, sp, #12
  41              		.cfi_def_cfa_offset 24
  42 0004 00AF     		add	r7, sp, #0
  43              		.cfi_def_cfa_register 7
  97:.\HeartRateProcessing.c ****     static bool newBeat = true;
  98:.\HeartRateProcessing.c ****     static bool firstTime = true;
  99:.\HeartRateProcessing.c ****     static uint32 previousBeatTime = 0;
 100:.\HeartRateProcessing.c ****     static uint32 newBeatTime = 0;
 101:.\HeartRateProcessing.c ****     int16 adcOut;
 102:.\HeartRateProcessing.c ****     uint32 twoSampleTime = 0;
  44              		.loc 1 102 0
  45 0006 0023     		mov	r3, #0
  46 0008 7B60     		str	r3, [r7, #4]
 103:.\HeartRateProcessing.c **** 
 104:.\HeartRateProcessing.c ****     /* Get the ADC output */
 105:.\HeartRateProcessing.c ****     ADC_StartConvert();
  47              		.loc 1 105 0
  48 000a FFF7FEFF 		bl	ADC_StartConvert
 106:.\HeartRateProcessing.c ****     ADC_IsEndConversion(ADC_WAIT_FOR_RESULT);
  49              		.loc 1 106 0
  50 000e 0220     		mov	r0, #2
  51 0010 FFF7FEFF 		bl	ADC_IsEndConversion
 107:.\HeartRateProcessing.c ****     adcOut = ADC_GetResult16(HEART_RATE_CHANNEL);
  52              		.loc 1 107 0
  53 0014 BC1C     		add	r4, r7, #2
  54 0016 0020     		mov	r0, #0
  55 0018 FFF7FEFF 		bl	ADC_GetResult16
  56 001c 031C     		mov	r3, r0
  57 001e 2380     		strh	r3, [r4]
 108:.\HeartRateProcessing.c ****     
 109:.\HeartRateProcessing.c ****     /* If the ADC output is more than a fixed threshold, consider that a 
 110:.\HeartRateProcessing.c ****      * valid R peak */
 111:.\HeartRateProcessing.c ****     if (PWM_1_ReadCounter() > PWM_1_ReadCompare())
  58              		.loc 1 111 0
  59 0020 FFF7FEFF 		bl	PWM_1_ReadCounter
  60 0024 041C     		mov	r4, r0
ARM GAS  C:\Users\Admin\AppData\Local\Temp\ccaGXjpz.s 			page 4


  61 0026 FFF7FEFF 		bl	PWM_1_ReadCompare
  62 002a 031C     		mov	r3, r0
  63 002c 9C42     		cmp	r4, r3
  64 002e 2ED9     		bls	.L2
 112:.\HeartRateProcessing.c ****     {
 113:.\HeartRateProcessing.c ****         
 114:.\HeartRateProcessing.c ****         /* Check if the R peak just started - i.e. identify the rising 
 115:.\HeartRateProcessing.c ****          * edge of the R peak */
 116:.\HeartRateProcessing.c ****         if(newBeat)
  65              		.loc 1 116 0
  66 0030 1A4B     		ldr	r3, .L7
  67 0032 1B78     		ldrb	r3, [r3]
  68 0034 002B     		cmp	r3, #0
  69 0036 26D0     		beq	.L3
 117:.\HeartRateProcessing.c ****         {
 118:.\HeartRateProcessing.c ****             /* Check if this is the first R-peak seen by the device yet.
 119:.\HeartRateProcessing.c ****              * If that is the case, we cannot calculate a heart rate value 
 120:.\HeartRateProcessing.c ****              * yet since a minimum of two peak time interval is required. 
 121:.\HeartRateProcessing.c ****              * Just note the timestamp of this peak.
 122:.\HeartRateProcessing.c ****              */
 123:.\HeartRateProcessing.c ****     		if(firstTime == true)
  70              		.loc 1 123 0
  71 0038 194B     		ldr	r3, .L7+4
  72 003a 1B78     		ldrb	r3, [r3]
  73 003c 002B     		cmp	r3, #0
  74 003e 08D0     		beq	.L4
 124:.\HeartRateProcessing.c ****     		{
 125:.\HeartRateProcessing.c ****     			firstTime = false;
  75              		.loc 1 125 0
  76 0040 174B     		ldr	r3, .L7+4
  77 0042 0022     		mov	r2, #0
  78 0044 1A70     		strb	r2, [r3]
 126:.\HeartRateProcessing.c ****     			previousBeatTime = WatchdogTimer_GetTimestamp();
  79              		.loc 1 126 0
  80 0046 FFF7FEFF 		bl	WatchdogTimer_GetTimestamp
  81 004a 021C     		mov	r2, r0
  82 004c 154B     		ldr	r3, .L7+8
  83 004e 1A60     		str	r2, [r3]
  84 0050 19E0     		b	.L3
  85              	.L4:
 127:.\HeartRateProcessing.c ****     		}
 128:.\HeartRateProcessing.c ****     		else
 129:.\HeartRateProcessing.c ****     		{
 130:.\HeartRateProcessing.c ****                 /* Rolling window of two samples. Note the timestamp of 
 131:.\HeartRateProcessing.c ****                  * the new peak and subtract the timestamp of the previous
 132:.\HeartRateProcessing.c ****                  * to obtain the RR-interval. Extrapolate it to get a heart
 133:.\HeartRateProcessing.c ****                  * beat value in beats per minute.
 134:.\HeartRateProcessing.c ****                  */
 135:.\HeartRateProcessing.c ****     			newBeatTime = WatchdogTimer_GetTimestamp();
  86              		.loc 1 135 0
  87 0052 FFF7FEFF 		bl	WatchdogTimer_GetTimestamp
  88 0056 021C     		mov	r2, r0
  89 0058 134B     		ldr	r3, .L7+12
  90 005a 1A60     		str	r2, [r3]
 136:.\HeartRateProcessing.c ****     			twoSampleTime = newBeatTime - previousBeatTime;
  91              		.loc 1 136 0
  92 005c 124B     		ldr	r3, .L7+12
ARM GAS  C:\Users\Admin\AppData\Local\Temp\ccaGXjpz.s 			page 5


  93 005e 1A68     		ldr	r2, [r3]
  94 0060 104B     		ldr	r3, .L7+8
  95 0062 1B68     		ldr	r3, [r3]
  96 0064 D31A     		sub	r3, r2, r3
  97 0066 7B60     		str	r3, [r7, #4]
 137:.\HeartRateProcessing.c ****                 
 138:.\HeartRateProcessing.c ****                 if(twoSampleTime != 0)
  98              		.loc 1 138 0
  99 0068 7B68     		ldr	r3, [r7, #4]
 100 006a 002B     		cmp	r3, #0
 101 006c 07D0     		beq	.L5
 139:.\HeartRateProcessing.c ****                 {
 140:.\HeartRateProcessing.c ****                     heartRate = (uint32)SEC_IN_MIN * MS_TO_SECOND / twoSampleTime;
 102              		.loc 1 140 0
 103 006e 0F48     		ldr	r0, .L7+16
 104 0070 7968     		ldr	r1, [r7, #4]
 105 0072 FFF7FEFF 		bl	__aeabi_uidiv
 106 0076 031C     		mov	r3, r0
 107 0078 DAB2     		uxtb	r2, r3
 108 007a 0D4B     		ldr	r3, .L7+20
 109 007c 1A70     		strb	r2, [r3]
 110              	.L5:
 141:.\HeartRateProcessing.c ****                 }
 142:.\HeartRateProcessing.c ****                 
 143:.\HeartRateProcessing.c ****                 previousBeatTime = newBeatTime;
 111              		.loc 1 143 0
 112 007e 0A4B     		ldr	r3, .L7+12
 113 0080 1A68     		ldr	r2, [r3]
 114 0082 084B     		ldr	r3, .L7+8
 115 0084 1A60     		str	r2, [r3]
 116              	.L3:
 144:.\HeartRateProcessing.c ****     		}
 145:.\HeartRateProcessing.c ****         }
 146:.\HeartRateProcessing.c ****         
 147:.\HeartRateProcessing.c ****         /* Clear the flag to indicate next time that this R peak has already
 148:.\HeartRateProcessing.c ****          * been accounted for and we need to wait for the next peak. 
 149:.\HeartRateProcessing.c ****          */
 150:.\HeartRateProcessing.c ****         newBeat = false;
 117              		.loc 1 150 0 discriminator 1
 118 0086 054B     		ldr	r3, .L7
 119 0088 0022     		mov	r2, #0
 120 008a 1A70     		strb	r2, [r3]
 121 008c 02E0     		b	.L1
 122              	.L2:
 151:.\HeartRateProcessing.c ****     }
 152:.\HeartRateProcessing.c ****     else
 153:.\HeartRateProcessing.c ****     {
 154:.\HeartRateProcessing.c ****         /* Set the flag to indicate that there is no R-peak going on right now.
 155:.\HeartRateProcessing.c ****          * So it is expected that the next time the ADC output is more than 
 156:.\HeartRateProcessing.c ****          * the threshold, it will be a new peak. 
 157:.\HeartRateProcessing.c ****          */
 158:.\HeartRateProcessing.c ****         newBeat = true;
 123              		.loc 1 158 0
 124 008e 034B     		ldr	r3, .L7
 125 0090 0122     		mov	r2, #1
 126 0092 1A70     		strb	r2, [r3]
 127              	.L1:
ARM GAS  C:\Users\Admin\AppData\Local\Temp\ccaGXjpz.s 			page 6


 159:.\HeartRateProcessing.c ****     }
 160:.\HeartRateProcessing.c **** }
 128              		.loc 1 160 0
 129 0094 BD46     		mov	sp, r7
 130 0096 03B0     		add	sp, sp, #12
 131              		@ sp needed
 132 0098 90BD     		pop	{r4, r7, pc}
 133              	.L8:
 134 009a C046     		.align	2
 135              	.L7:
 136 009c 00000000 		.word	newBeat.6568
 137 00a0 01000000 		.word	firstTime.6569
 138 00a4 04000000 		.word	previousBeatTime.6570
 139 00a8 08000000 		.word	newBeatTime.6571
 140 00ac 60EA0000 		.word	60000
 141 00b0 00000000 		.word	heartRate
 142              		.cfi_endproc
 143              	.LFE35:
 144              		.size	ProcessHeartRateSignal, .-ProcessHeartRateSignal
 145              		.data
 146              		.type	newBeat.6568, %object
 147              		.size	newBeat.6568, 1
 148              	newBeat.6568:
 149 0000 01       		.byte	1
 150              		.type	firstTime.6569, %object
 151              		.size	firstTime.6569, 1
 152              	firstTime.6569:
 153 0001 01       		.byte	1
 154              		.bss
 155 0001 000000   		.align	2
 156              	previousBeatTime.6570:
 157 0004 00000000 		.space	4
 158              		.align	2
 159              	newBeatTime.6571:
 160 0008 00000000 		.space	4
 161              		.text
 162              	.Letext0:
 163              		.file 2 ".\\Generated_Source\\PSoC4/cytypes.h"
 164              		.file 3 ".\\Generated_Source\\PSoC4/BLE_1_Stack.h"
 165              		.file 4 ".\\Generated_Source\\PSoC4/BLE_1_hrs.h"
 166              		.file 5 ".\\Generated_Source\\PSoC4/BLE_1_dis.h"